target datalayout = "e-m:e-p270:32:32-p271:32:32-p272:64:64-i64:64-i128:128-f80:128-n8:16:32:64-S128"
target triple = "x86_64-pc-linux-gnu"

%"class.icu_77::RuleBasedBreakIterator::DictionaryCache" = type <{ ptr, %"class.icu_77::UVector32", i32, i32, i32, i32, i32, [4 x i8] }>
%"class.icu_77::UVector32" = type { %"class.icu_77::UObject", i32, i32, i32, ptr }
%"class.icu_77::UObject" = type { ptr }

; Function Attrs: inlinehint mustprogress nounwind uwtable
define linkonce_odr noundef i32 @_ZNK6icu_779UVector3210elementAtiEi(ptr noundef nonnull align 8 dereferenceable(32) %0, i32 noundef %1) #5 comdat align 2 {
  %3 = alloca ptr, align 8
  %4 = alloca i32, align 4
  store ptr %0, ptr %3, align 8, !tbaa !26
  store i32 %1, ptr %4, align 4, !tbaa !22
  %5 = load ptr, ptr %3, align 8
  %6 = load i32, ptr %4, align 4, !tbaa !22
  %7 = icmp sge i32 %6, 0
  br i1 %7, label %8, label %25

8:                                                ; preds = %2
  %9 = getelementptr inbounds nuw %"class.icu_77::UVector32", ptr %5, i32 0, i32 1
  %10 = load i32, ptr %9, align 8, !tbaa !28
  %11 = icmp sgt i32 %10, 0
  br i1 %11, label %12, label %25

12:                                               ; preds = %8
  %13 = getelementptr inbounds nuw %"class.icu_77::UVector32", ptr %5, i32 0, i32 1
  %14 = load i32, ptr %13, align 8, !tbaa !28
  %15 = load i32, ptr %4, align 4, !tbaa !22
  %16 = sub nsw i32 %14, %15
  %17 = icmp sgt i32 %16, 0
  br i1 %17, label %18, label %25

18:                                               ; preds = %12
  %19 = getelementptr inbounds nuw %"class.icu_77::UVector32", ptr %5, i32 0, i32 4
  %20 = load ptr, ptr %19, align 8, !tbaa !29
  %21 = load i32, ptr %4, align 4, !tbaa !22
  %22 = sext i32 %21 to i64
  %23 = getelementptr inbounds i32, ptr %20, i64 %22
  %24 = load i32, ptr %23, align 4, !tbaa !22
  br label %26

25:                                               ; preds = %12, %8, %2
  br label %26

26:                                               ; preds = %25, %18
  %27 = phi i32 [ %24, %18 ], [ 0, %25 ]
  ret i32 %27
}

; Function Attrs: inlinehint mustprogress nounwind uwtable
define linkonce_odr noundef i32 @_ZNK6icu_779UVector324sizeEv(ptr noundef nonnull align 8 dereferenceable(32) %0) #5 comdat align 2 {
  %2 = alloca ptr, align 8
  store ptr %0, ptr %2, align 8, !tbaa !26
  %3 = load ptr, ptr %2, align 8
  %4 = getelementptr inbounds nuw %"class.icu_77::UVector32", ptr %3, i32 0, i32 1
  %5 = load i32, ptr %4, align 8, !tbaa !28
  ret i32 %5
}

; Function Attrs: mustprogress uwtable
define noundef signext i8 @_ZN6icu_7722RuleBasedBreakIterator15DictionaryCache9precedingEiPiS2_(ptr noundef nonnull align 8 dereferenceable(60) %0, i32 noundef %1, ptr noundef %2, ptr noundef %3) #0 align 2 {
  %5 = alloca i8, align 1
  %6 = alloca ptr, align 8
  %7 = alloca i32, align 4
  %8 = alloca ptr, align 8
  %9 = alloca ptr, align 8
  %10 = alloca i32, align 4
  %11 = alloca i32, align 4
  store ptr %0, ptr %6, align 8, !tbaa !3
  store i32 %1, ptr %7, align 4, !tbaa !22
  store ptr %2, ptr %8, align 8, !tbaa !23
  store ptr %3, ptr %9, align 8, !tbaa !23
  %12 = load ptr, ptr %6, align 8
  %13 = load i32, ptr %7, align 4, !tbaa !22
  %14 = getelementptr inbounds nuw %"class.icu_77::RuleBasedBreakIterator::DictionaryCache", ptr %12, i32 0, i32 3
  %15 = load i32, ptr %14, align 4, !tbaa !18
  %16 = icmp sle i32 %13, %15
  br i1 %16, label %22, label %17

17:                                               ; preds = %4
  %18 = load i32, ptr %7, align 4, !tbaa !22
  %19 = getelementptr inbounds nuw %"class.icu_77::RuleBasedBreakIterator::DictionaryCache", ptr %12, i32 0, i32 4
  %20 = load i32, ptr %19, align 8, !tbaa !19
  %21 = icmp sgt i32 %18, %20
  br i1 %21, label %22, label %24

22:                                               ; preds = %17, %4
  %23 = getelementptr inbounds nuw %"class.icu_77::RuleBasedBreakIterator::DictionaryCache", ptr %12, i32 0, i32 2
  store i32 -1, ptr %23, align 8, !tbaa !17
  store i8 0, ptr %5, align 1
  br label %125

24:                                               ; preds = %17
  %25 = load i32, ptr %7, align 4, !tbaa !22
  %26 = getelementptr inbounds nuw %"class.icu_77::RuleBasedBreakIterator::DictionaryCache", ptr %12, i32 0, i32 4
  %27 = load i32, ptr %26, align 8, !tbaa !19
  %28 = icmp eq i32 %25, %27
  br i1 %28, label %29, label %39

29:                                               ; preds = %24
  %30 = getelementptr inbounds nuw %"class.icu_77::RuleBasedBreakIterator::DictionaryCache", ptr %12, i32 0, i32 1
  %31 = call noundef i32 @_ZNK6icu_779UVector324sizeEv(ptr noundef nonnull align 8 dereferenceable(32) %30)
  %32 = sub nsw i32 %31, 1
  %33 = getelementptr inbounds nuw %"class.icu_77::RuleBasedBreakIterator::DictionaryCache", ptr %12, i32 0, i32 2
  store i32 %32, ptr %33, align 8, !tbaa !17
  %34 = getelementptr inbounds nuw %"class.icu_77::RuleBasedBreakIterator::DictionaryCache", ptr %12, i32 0, i32 2
  %35 = load i32, ptr %34, align 8, !tbaa !17
  %36 = icmp sge i32 %35, 0
  br i1 %36, label %37, label %38

37:                                               ; preds = %29
  br label %38

38:                                               ; preds = %37, %29
  br label %39

39:                                               ; preds = %38, %24
  call void @llvm.lifetime.start.p0(i64 4, ptr %10) #8
  %40 = getelementptr inbounds nuw %"class.icu_77::RuleBasedBreakIterator::DictionaryCache", ptr %12, i32 0, i32 2
  %41 = load i32, ptr %40, align 8, !tbaa !17
  %42 = icmp sgt i32 %41, 0
  br i1 %42, label %43, label %79

43:                                               ; preds = %39
  %44 = getelementptr inbounds nuw %"class.icu_77::RuleBasedBreakIterator::DictionaryCache", ptr %12, i32 0, i32 2
  %45 = load i32, ptr %44, align 8, !tbaa !17
  %46 = getelementptr inbounds nuw %"class.icu_77::RuleBasedBreakIterator::DictionaryCache", ptr %12, i32 0, i32 1
  %47 = call noundef i32 @_ZNK6icu_779UVector324sizeEv(ptr noundef nonnull align 8 dereferenceable(32) %46)
  %48 = icmp slt i32 %45, %47
  br i1 %48, label %49, label %79

49:                                               ; preds = %43
  %50 = getelementptr inbounds nuw %"class.icu_77::RuleBasedBreakIterator::DictionaryCache", ptr %12, i32 0, i32 1
  %51 = getelementptr inbounds nuw %"class.icu_77::RuleBasedBreakIterator::DictionaryCache", ptr %12, i32 0, i32 2
  %52 = load i32, ptr %51, align 8, !tbaa !17
  %53 = call noundef i32 @_ZNK6icu_779UVector3210elementAtiEi(ptr noundef nonnull align 8 dereferenceable(32) %50, i32 noundef %52)
  %54 = load i32, ptr %7, align 4, !tbaa !22
  %55 = icmp eq i32 %53, %54
  br i1 %55, label %56, label %79

56:                                               ; preds = %49
  %57 = getelementptr inbounds nuw %"class.icu_77::RuleBasedBreakIterator::DictionaryCache", ptr %12, i32 0, i32 2
  %58 = load i32, ptr %57, align 8, !tbaa !17
  %59 = add nsw i32 %58, -1
  store i32 %59, ptr %57, align 8, !tbaa !17
  %60 = getelementptr inbounds nuw %"class.icu_77::RuleBasedBreakIterator::DictionaryCache", ptr %12, i32 0, i32 1
  %61 = getelementptr inbounds nuw %"class.icu_77::RuleBasedBreakIterator::DictionaryCache", ptr %12, i32 0, i32 2
  %62 = load i32, ptr %61, align 8, !tbaa !17
  %63 = call noundef i32 @_ZNK6icu_779UVector3210elementAtiEi(ptr noundef nonnull align 8 dereferenceable(32) %60, i32 noundef %62)
  store i32 %63, ptr %10, align 4, !tbaa !22
  %64 = load i32, ptr %10, align 4, !tbaa !22
  %65 = load ptr, ptr %8, align 8, !tbaa !23
  store i32 %64, ptr %65, align 4, !tbaa !22
  %66 = load i32, ptr %10, align 4, !tbaa !22
  %67 = getelementptr inbounds nuw %"class.icu_77::RuleBasedBreakIterator::DictionaryCache", ptr %12, i32 0, i32 3
  %68 = load i32, ptr %67, align 4, !tbaa !18
  %69 = icmp eq i32 %66, %68
  br i1 %69, label %70, label %73

70:                                               ; preds = %56
  %71 = getelementptr inbounds nuw %"class.icu_77::RuleBasedBreakIterator::DictionaryCache", ptr %12, i32 0, i32 5
  %72 = load i32, ptr %71, align 4, !tbaa !20
  br label %76

73:                                               ; preds = %56
  %74 = getelementptr inbounds nuw %"class.icu_77::RuleBasedBreakIterator::DictionaryCache", ptr %12, i32 0, i32 6
  %75 = load i32, ptr %74, align 8, !tbaa !21
  br label %76

76:                                               ; preds = %73, %70
  %77 = phi i32 [ %72, %70 ], [ %75, %73 ]
  %78 = load ptr, ptr %9, align 8, !tbaa !23
  store i32 %77, ptr %78, align 4, !tbaa !22
  store i8 1, ptr %5, align 1
  store i32 1, ptr %11, align 4
  br label %124

79:                                               ; preds = %49, %43, %39
  %80 = getelementptr inbounds nuw %"class.icu_77::RuleBasedBreakIterator::DictionaryCache", ptr %12, i32 0, i32 2
  %81 = load i32, ptr %80, align 8, !tbaa !17
  %82 = icmp eq i32 %81, 0
  br i1 %82, label %83, label %85

83:                                               ; preds = %79
  %84 = getelementptr inbounds nuw %"class.icu_77::RuleBasedBreakIterator::DictionaryCache", ptr %12, i32 0, i32 2
  store i32 -1, ptr %84, align 8, !tbaa !17
  store i8 0, ptr %5, align 1
  store i32 1, ptr %11, align 4
  br label %124

85:                                               ; preds = %79
  %86 = getelementptr inbounds nuw %"class.icu_77::RuleBasedBreakIterator::DictionaryCache", ptr %12, i32 0, i32 1
  %87 = call noundef i32 @_ZNK6icu_779UVector324sizeEv(ptr noundef nonnull align 8 dereferenceable(32) %86)
  %88 = sub nsw i32 %87, 1
  %89 = getelementptr inbounds nuw %"class.icu_77::RuleBasedBreakIterator::DictionaryCache", ptr %12, i32 0, i32 2
  store i32 %88, ptr %89, align 8, !tbaa !17
  br label %90

90:                                               ; preds = %119, %85
  %91 = getelementptr inbounds nuw %"class.icu_77::RuleBasedBreakIterator::DictionaryCache", ptr %12, i32 0, i32 2
  %92 = load i32, ptr %91, align 8, !tbaa !17
  %93 = icmp sge i32 %92, 0
  br i1 %93, label %94, label %123

94:                                               ; preds = %90
  %95 = getelementptr inbounds nuw %"class.icu_77::RuleBasedBreakIterator::DictionaryCache", ptr %12, i32 0, i32 1
  %96 = getelementptr inbounds nuw %"class.icu_77::RuleBasedBreakIterator::DictionaryCache", ptr %12, i32 0, i32 2
  %97 = load i32, ptr %96, align 8, !tbaa !17
  %98 = call noundef i32 @_ZNK6icu_779UVector3210elementAtiEi(ptr noundef nonnull align 8 dereferenceable(32) %95, i32 noundef %97)
  store i32 %98, ptr %10, align 4, !tbaa !22
  %99 = load i32, ptr %10, align 4, !tbaa !22
  %100 = load i32, ptr %7, align 4, !tbaa !22
  %101 = icmp slt i32 %99, %100
  br i1 %101, label %102, label %118

102:                                              ; preds = %94
  %103 = load i32, ptr %10, align 4, !tbaa !22
  %104 = load ptr, ptr %8, align 8, !tbaa !23
  store i32 %103, ptr %104, align 4, !tbaa !22
  %105 = load i32, ptr %10, align 4, !tbaa !22
  %106 = getelementptr inbounds nuw %"class.icu_77::RuleBasedBreakIterator::DictionaryCache", ptr %12, i32 0, i32 3
  %107 = load i32, ptr %106, align 4, !tbaa !18
  %108 = icmp eq i32 %105, %107
  br i1 %108, label %109, label %112

109:                                              ; preds = %102
  %110 = getelementptr inbounds nuw %"class.icu_77::RuleBasedBreakIterator::DictionaryCache", ptr %12, i32 0, i32 5
  %111 = load i32, ptr %110, align 4, !tbaa !20
  br label %115

112:                                              ; preds = %102
  %113 = getelementptr inbounds nuw %"class.icu_77::RuleBasedBreakIterator::DictionaryCache", ptr %12, i32 0, i32 6
  %114 = load i32, ptr %113, align 8, !tbaa !21
  br label %115

115:                                              ; preds = %112, %109
  %116 = phi i32 [ %111, %109 ], [ %114, %112 ]
  %117 = load ptr, ptr %9, align 8, !tbaa !23
  store i32 %116, ptr %117, align 4, !tbaa !22
  store i8 1, ptr %5, align 1
  store i32 1, ptr %11, align 4
  br label %124

118:                                              ; preds = %94
  br label %119

119:                                              ; preds = %118
  %120 = getelementptr inbounds nuw %"class.icu_77::RuleBasedBreakIterator::DictionaryCache", ptr %12, i32 0, i32 2
  %121 = load i32, ptr %120, align 8, !tbaa !17
  %122 = add nsw i32 %121, -1
  store i32 %122, ptr %120, align 8, !tbaa !17
  br label %90, !llvm.loop !30

123:                                              ; preds = %90
  call void @abort() #9
  unreachable

124:                                              ; preds = %115, %83, %76
  call void @llvm.lifetime.end.p0(i64 4, ptr %10) #8
  br label %125

125:                                              ; preds = %124, %22
  %126 = load i8, ptr %5, align 1
  ret i8 %126
}