; Function Attrs: mustprogress nofree nounwind uwtable
define noundef signext range(i8 0, 2) i8 @_ZN6icu_7722RuleBasedBreakIterator15DictionaryCache9precedingEiPiS2_(ptr noundef nonnull align 8 captures(none) dereferenceable(60) %0, i32 noundef %1, ptr noundef writeonly captures(none) %2, ptr noundef writeonly captures(none) %3) local_unnamed_addr #4 align 2 {
  %5 = getelementptr inbounds nuw i8, ptr %0, i64 44
  %6 = load i32, ptr %5, align 4, !tbaa !21
  %.not = icmp sgt i32 %1, %6
  br i1 %.not, label %7, label %11

7:                                                ; preds = %4
  %8 = getelementptr inbounds nuw i8, ptr %0, i64 48
  %9 = load i32, ptr %8, align 8, !tbaa !14
  %10 = icmp sgt i32 %1, %9
  br i1 %10, label %11, label %13

11:                                               ; preds = %7, %4
  %12 = getelementptr inbounds nuw i8, ptr %0, i64 40
  store i32 -1, ptr %12, align 8, !tbaa !13
  br label %67

13:                                               ; preds = %7
  %14 = icmp eq i32 %1, %9
  br i1 %14, label %15, label %._crit_edge

._crit_edge:                                      ; preds = %13
  %.phi.trans.insert = getelementptr inbounds nuw i8, ptr %0, i64 40
  %.pre = load i32, ptr %.phi.trans.insert, align 8, !tbaa !13
  br label %20

15:                                               ; preds = %13
  %16 = getelementptr inbounds nuw i8, ptr %0, i64 16
  %17 = load i32, ptr %16, align 8, !tbaa !15
  %18 = add nsw i32 %17, -1
  %19 = getelementptr inbounds nuw i8, ptr %0, i64 40
  store i32 %18, ptr %19, align 8, !tbaa !13
  br label %20

20:                                               ; preds = %._crit_edge, %15
  %21 = phi i32 [ %.pre, %._crit_edge ], [ %18, %15 ]
  %22 = getelementptr inbounds nuw i8, ptr %0, i64 40
  %23 = icmp sgt i32 %21, 0
  br i1 %23, label %24, label %45

24:                                               ; preds = %20
  %25 = getelementptr inbounds nuw i8, ptr %0, i64 16
  %26 = load i32, ptr %25, align 8, !tbaa !15
  %27 = icmp slt i32 %21, %26
  br i1 %27, label %_ZNK6icu_779UVector3210elementAtiEi.exit, label %.thread

_ZNK6icu_779UVector3210elementAtiEi.exit:         ; preds = %24
  %28 = getelementptr inbounds nuw i8, ptr %0, i64 32
  %29 = load ptr, ptr %28, align 8, !tbaa !16
  %30 = zext nneg i32 %21 to i64
  %31 = getelementptr inbounds nuw i32, ptr %29, i64 %30
  %32 = load i32, ptr %31, align 4, !tbaa !17
  %33 = icmp eq i32 %32, %1
  br i1 %33, label %34, label %.thread

34:                                               ; preds = %_ZNK6icu_779UVector3210elementAtiEi.exit
  %35 = add nsw i32 %21, -1
  store i32 %35, ptr %22, align 8, !tbaa !13
  %36 = icmp samesign ugt i32 %26, %35
  br i1 %36, label %37, label %_ZNK6icu_779UVector3210elementAtiEi.exit22

37:                                               ; preds = %34
  %38 = zext nneg i32 %35 to i64
  %39 = getelementptr inbounds nuw i32, ptr %29, i64 %38
  %40 = load i32, ptr %39, align 4, !tbaa !17
  br label %_ZNK6icu_779UVector3210elementAtiEi.exit22

_ZNK6icu_779UVector3210elementAtiEi.exit22:       ; preds = %34, %37
  %41 = phi i32 [ %40, %37 ], [ 0, %34 ]
  store i32 %41, ptr %2, align 4, !tbaa !17
  %42 = load i32, ptr %5, align 4, !tbaa !21
  %43 = icmp eq i32 %41, %42
  %.in20.v = select i1 %43, i64 52, i64 56
  %.in20 = getelementptr inbounds nuw i8, ptr %0, i64 %.in20.v
  %44 = load i32, ptr %.in20, align 4, !tbaa !17
  store i32 %44, ptr %3, align 4, !tbaa !17
  br label %67

45:                                               ; preds = %20
  %46 = icmp eq i32 %21, 0
  br i1 %46, label %47, label %..thread_crit_edge

..thread_crit_edge:                               ; preds = %45
  %.phi.trans.insert27 = getelementptr inbounds nuw i8, ptr %0, i64 16
  %.pre28 = load i32, ptr %.phi.trans.insert27, align 8, !tbaa !15
  br label %.thread

47:                                               ; preds = %45
  store i32 -1, ptr %22, align 8, !tbaa !13
  br label %67

.thread:                                          ; preds = %..thread_crit_edge, %24, %_ZNK6icu_779UVector3210elementAtiEi.exit
  %48 = phi i32 [ %.pre28, %..thread_crit_edge ], [ %26, %24 ], [ %26, %_ZNK6icu_779UVector3210elementAtiEi.exit ]
  %49 = getelementptr inbounds nuw i8, ptr %0, i64 32
  %50 = load ptr, ptr %49, align 8
  %51 = zext i32 %48 to i64
  br label %52

52:                                               ; preds = %_ZNK6icu_779UVector3210elementAtiEi.exit24, %.thread
  %indvars.iv = phi i64 [ %indvars.iv.next, %_ZNK6icu_779UVector3210elementAtiEi.exit24 ], [ %51, %.thread ]
  %indvars.iv.next = add nsw i64 %indvars.iv, -1
  %indvars = trunc i64 %indvars.iv.next to i32
  store i32 %indvars, ptr %22, align 8, !tbaa !13
  %53 = trunc nuw i64 %indvars.iv to i32
  %54 = icmp sgt i32 %53, 0
  br i1 %54, label %55, label %66

55:                                               ; preds = %52
  %.not25 = icmp slt i32 %48, %53
  br i1 %.not25, label %_ZNK6icu_779UVector3210elementAtiEi.exit24, label %56

56:                                               ; preds = %55
  %57 = and i64 %indvars.iv.next, 4294967295
  %58 = getelementptr inbounds nuw i32, ptr %50, i64 %57
  %59 = load i32, ptr %58, align 4, !tbaa !17
  br label %_ZNK6icu_779UVector3210elementAtiEi.exit24

_ZNK6icu_779UVector3210elementAtiEi.exit24:       ; preds = %55, %56
  %60 = phi i32 [ %59, %56 ], [ 0, %55 ]
  %61 = icmp slt i32 %60, %1
  br i1 %61, label %62, label %52, !llvm.loop !22

62:                                               ; preds = %_ZNK6icu_779UVector3210elementAtiEi.exit24
  store i32 %60, ptr %2, align 4, !tbaa !17
  %63 = load i32, ptr %5, align 4, !tbaa !21
  %64 = icmp eq i32 %60, %63
  %.in.v = select i1 %64, i64 52, i64 56
  %.in = getelementptr inbounds nuw i8, ptr %0, i64 %.in.v
  %65 = load i32, ptr %.in, align 4, !tbaa !17
  store i32 %65, ptr %3, align 4, !tbaa !17
  br label %67

66:                                               ; preds = %52
  tail call void @abort() #15
  unreachable

67:                                               ; preds = %_ZNK6icu_779UVector3210elementAtiEi.exit22, %47, %62, %11
  %.0 = phi i8 [ 0, %11 ], [ 1, %_ZNK6icu_779UVector3210elementAtiEi.exit22 ], [ 0, %47 ], [ 1, %62 ]
  ret i8 %.0
}